target datalayout = "e-m:e-p270:32:32-p271:32:32-p272:64:64-i64:64-i128:128-f80:128-n8:16:32:64-S128"
target triple = "x86_64-pc-linux-gnu"

%struct.nstime_t = type { i64, i32 }
%struct._packet_info = type { ptr, ptr, i32, i32, %struct.nstime_t, %struct.nstime_t, %struct.nstime_t, i8, ptr, ptr, ptr, ptr, %struct._address, %struct._address, %struct._address, %struct._address, %struct._address, %struct._address, i32, ptr, i8, [3 x i8], %struct.anon, i32, i32, i32, i32, ptr, i8, ptr, ptr, i16, i16, i32, i32, i16, i32, i32, ptr, ptr, ptr, i8, i8, i16, i16, i16, i32, i16, i16, ptr, ptr, ptr, ptr, ptr, i32, i32 }
%struct._address = type { i32, i32, ptr, ptr }
%struct.anon = type { i8, [3 x i8] }
%struct._frame_data = type <{ i32, i32, i32, i32, i32, [4 x i8], i64, ptr, ptr, ptr, i8, i16, [5 x i8], %struct.nstime_t, %struct.nstime_t, i32, i32 }>

; Function Attrs: mustprogress null_pointer_is_valid sspstrong uwtable
define noundef i32 @_ZN23LBMLBTRUTransportDialog9tapPacketEPvP12_packet_infoP12epan_dissectPKvj(ptr noundef %0, ptr noundef %1, ptr noundef %2, ptr noundef %3, i32 noundef %4) #0 align 2 {
  %6 = alloca ptr, align 8
  %7 = alloca ptr, align 8
  %8 = alloca ptr, align 8
  %9 = alloca ptr, align 8
  %10 = alloca i32, align 4
  %11 = alloca ptr, align 8
  %12 = alloca ptr, align 8
  store ptr %0, ptr %6, align 8
  store ptr %1, ptr %7, align 8
  store ptr %2, ptr %8, align 8
  store ptr %3, ptr %9, align 8
  store i32 %4, ptr %10, align 4
  %13 = load ptr, ptr %7, align 8
  %14 = getelementptr inbounds nuw %struct._packet_info, ptr %13, i32 0, i32 8
  %15 = load ptr, ptr %14, align 8
  %16 = getelementptr inbounds nuw %struct._frame_data, ptr %15, i32 0, i32 11
  %17 = load i16, ptr %16, align 1
  %18 = and i16 %17, 1
  %19 = zext i16 %18 to i32
  %20 = icmp eq i32 %19, 1
  br i1 %20, label %21, label %27

21:                                               ; preds = %5
  call void @llvm.lifetime.start.p0(i64 8, ptr %11) #22
  %22 = load ptr, ptr %9, align 8
  store ptr %22, ptr %11, align 8
  call void @llvm.lifetime.start.p0(i64 8, ptr %12) #22
  %23 = load ptr, ptr %6, align 8
  store ptr %23, ptr %12, align 8
  %24 = load ptr, ptr %12, align 8
  %25 = load ptr, ptr %7, align 8
  %26 = load ptr, ptr %11, align 8
  call void @_ZN27LBMLBTRUTransportDialogInfo13processPacketEPK12_packet_infoPK20lbm_lbtru_tap_info_t(ptr noundef align 8 dereferenceable_or_null(24) %24, ptr noundef %25, ptr noundef %26)
  call void @llvm.lifetime.end.p0(i64 8, ptr %12) #22
  call void @llvm.lifetime.end.p0(i64 8, ptr %11) #22
  br label %27

27:                                               ; preds = %21, %5
  ret i32 1
}