; Function Attrs: mustprogress null_pointer_is_valid sspstrong uwtable
define noundef i32 @_ZN23LBMLBTRUTransportDialog9tapPacketEPvP12_packet_infoP12epan_dissectPKvj(ptr noundef %0, ptr noundef %1, ptr readnone captures(none) %2, ptr noundef %3, i32 %4) #0 align 2 {
  %6 = getelementptr inbounds nuw i8, ptr %1, i64 80
  %7 = load ptr, ptr %6, align 8
  %8 = getelementptr inbounds nuw i8, ptr %7, i64 57
  %9 = load i16, ptr %8, align 1
  %10 = and i16 %9, 1
  %.not = icmp eq i16 %10, 0
  br i1 %.not, label %12, label %11

11:                                               ; preds = %5
  tail call void @_ZN27LBMLBTRUTransportDialogInfo13processPacketEPK12_packet_infoPK20lbm_lbtru_tap_info_t(ptr noundef align 8 dereferenceable_or_null(24) %0, ptr noundef %1, ptr noundef %3)
  br label %12

12:                                               ; preds = %11, %5
  ret i32 1
}